; Function Attrs: mustprogress nounwind uwtable
define hidden void @_ZN2cv4rgbd19delete_normals_implEPvii(ptr noundef %0, i32 noundef %1, i32 noundef %2) local_unnamed_addr #6 {
  %4 = icmp ne ptr %0, null
  %switch = icmp ult i32 %1, 3
  %or.cond = and i1 %4, %switch
  br i1 %or.cond, label %.sink.split, label %8

.sink.split:                                      ; preds = %3
  %5 = load ptr, ptr %0, align 8, !tbaa !3
  %6 = getelementptr inbounds nuw i8, ptr %5, i64 8
  %7 = load ptr, ptr %6, align 8
  tail call void %7(ptr noundef nonnull align 8 dereferenceable(224) %0) #22
  br label %8

8:                                                ; preds = %.sink.split, %3
  ret void
}